target datalayout = "e-m:e-p270:32:32-p271:32:32-p272:64:64-i64:64-i128:128-f80:128-n8:16:32:64-S128"
target triple = "x86_64-pc-linux-gnu"

%struct.H5HG_t = type { i64, i64 }

@H5R_init_g = global i8 0, align 1
@H5_libterm_g = external global i8, align 1
@.str = private unnamed_addr constant [100 x i8] c"generated/home/dtcxzyw/WorkSpace/Projects/compilers/llvm-opt-benchmark/bench/hdf5/hdf5/src/H5Rint.c\00", align 1
@H5E_REFERENCE_g = external global i64, align 8
@H5E_ARGS_g = external global i64, align 8
@H5E_CANTDECODE_g = external global i64, align 8
@.str.31 = private unnamed_addr constant [25 x i8] c"Buffer size is too small\00", align 1
@H5E_BADVALUE_g = external global i64, align 8
@__func__.H5R__decode_heap = private unnamed_addr constant [17 x i8] c"H5R__decode_heap\00", align 1
@.str.39 = private unnamed_addr constant [28 x i8] c"Undefined reference pointer\00", align 1
@H5E_READERROR_g = external global i64, align 8
@.str.40 = private unnamed_addr constant [30 x i8] c"Unable to read reference data\00", align 1

; Function Attrs: nounwind uwtable
define i32 @H5R__decode_heap(ptr noundef %0, ptr noundef %1, ptr noundef %2, ptr noundef %3, ptr noundef %4) #0 {
  %6 = alloca ptr, align 8
  %7 = alloca ptr, align 8
  %8 = alloca ptr, align 8
  %9 = alloca ptr, align 8
  %10 = alloca ptr, align 8
  %11 = alloca ptr, align 8
  %12 = alloca %struct.H5HG_t, align 8
  %13 = alloca i64, align 8
  %14 = alloca i32, align 4
  %15 = alloca i8, align 1
  store ptr %0, ptr %6, align 8, !tbaa !46
  store ptr %1, ptr %7, align 8, !tbaa !24
  store ptr %2, ptr %8, align 8, !tbaa !26
  store ptr %3, ptr %9, align 8, !tbaa !42
  store ptr %4, ptr %10, align 8, !tbaa !26
  call void @llvm.lifetime.start.p0(i64 8, ptr %11) #9
  %16 = load ptr, ptr %7, align 8, !tbaa !24
  store ptr %16, ptr %11, align 8, !tbaa !24
  call void @llvm.lifetime.start.p0(i64 16, ptr %12) #9
  call void @llvm.lifetime.start.p0(i64 8, ptr %13) #9
  call void @llvm.lifetime.start.p0(i64 4, ptr %14) #9
  store i32 0, ptr %14, align 4, !tbaa !16
  call void @llvm.lifetime.start.p0(i64 1, ptr %15) #9
  store i8 0, ptr %15, align 1, !tbaa !3
  %17 = load i8, ptr @H5R_init_g, align 1, !tbaa !3, !range !7, !noundef !8
  %18 = trunc i8 %17 to i1
  br i1 %18, label %23, label %19

19:                                               ; preds = %5
  %20 = load i8, ptr @H5_libterm_g, align 1, !tbaa !3, !range !7, !noundef !8
  %21 = trunc i8 %20 to i1
  %22 = xor i1 %21, true
  br label %23

23:                                               ; preds = %19, %5
  %24 = phi i1 [ true, %5 ], [ %22, %19 ]
  %25 = xor i1 %24, true
  %26 = xor i1 %25, true
  %27 = zext i1 %26 to i32
  %28 = sext i32 %27 to i64
  %29 = call i64 @llvm.expect.i64(i64 %28, i64 1)
  %30 = icmp ne i64 %29, 0
  br i1 %30, label %31, label %163

31:                                               ; preds = %23
  %32 = load ptr, ptr %6, align 8, !tbaa !46
  %33 = call zeroext i8 @H5F_sizeof_addr(ptr noundef %32)
  %34 = zext i8 %33 to i64
  %35 = add i64 %34, 4
  store i64 %35, ptr %13, align 8, !tbaa !12
  %36 = load ptr, ptr %8, align 8, !tbaa !26
  %37 = load i64, ptr %36, align 8, !tbaa !12
  %38 = load i64, ptr %13, align 8, !tbaa !12
  %39 = icmp ult i64 %37, %38
  br i1 %39, label %40, label %59

40:                                               ; preds = %31
  br label %41

41:                                               ; preds = %40
  br label %42

42:                                               ; preds = %41
  br label %43

43:                                               ; preds = %42
  %44 = load i64, ptr @H5E_REFERENCE_g, align 8, !tbaa !12
  %45 = load i64, ptr @H5E_CANTDECODE_g, align 8, !tbaa !12
  %46 = call i32 (ptr, ptr, i32, i64, i64, ptr, ...) @H5E_printf_stack(ptr noundef @.str, ptr noundef @__func__.H5R__decode_heap, i32 noundef 1408, i64 noundef %44, i64 noundef %45, ptr noundef @.str.31)
  br label %47

47:                                               ; preds = %43
  br label %48

48:                                               ; preds = %47
  store i8 1, ptr %15, align 1, !tbaa !3
  %49 = load i8, ptr %15, align 1, !tbaa !3, !range !7, !noundef !8
  %50 = trunc i8 %49 to i1
  %51 = zext i1 %50 to i8
  store i8 %51, ptr %15, align 1, !tbaa !3
  br label %52

52:                                               ; preds = %48
  br label %53

53:                                               ; preds = %52
  br label %54

54:                                               ; preds = %53
  store i32 -1, ptr %14, align 4, !tbaa !16
  br label %162

55:                                               ; No predecessors!
  br label %56

56:                                               ; preds = %55
  br label %57

57:                                               ; preds = %56
  br label %58

58:                                               ; preds = %57
  br label %59

59:                                               ; preds = %58, %31
  %60 = load ptr, ptr %6, align 8, !tbaa !46
  %61 = getelementptr inbounds nuw %struct.H5HG_t, ptr %12, i32 0, i32 0
  call void @H5F_addr_decode(ptr noundef %60, ptr noundef %11, ptr noundef %61)
  %62 = getelementptr inbounds nuw %struct.H5HG_t, ptr %12, i32 0, i32 0
  %63 = load i64, ptr %62, align 8, !tbaa !48
  %64 = icmp ne i64 %63, -1
  br i1 %64, label %65, label %69

65:                                               ; preds = %59
  %66 = getelementptr inbounds nuw %struct.H5HG_t, ptr %12, i32 0, i32 0
  %67 = load i64, ptr %66, align 8, !tbaa !48
  %68 = icmp eq i64 %67, 0
  br i1 %68, label %69, label %88

69:                                               ; preds = %65, %59
  br label %70

70:                                               ; preds = %69
  br label %71

71:                                               ; preds = %70
  br label %72

72:                                               ; preds = %71
  %73 = load i64, ptr @H5E_ARGS_g, align 8, !tbaa !12
  %74 = load i64, ptr @H5E_BADVALUE_g, align 8, !tbaa !12
  %75 = call i32 (ptr, ptr, i32, i64, i64, ptr, ...) @H5E_printf_stack(ptr noundef @.str, ptr noundef @__func__.H5R__decode_heap, i32 noundef 1413, i64 noundef %73, i64 noundef %74, ptr noundef @.str.39)
  br label %76

76:                                               ; preds = %72
  br label %77

77:                                               ; preds = %76
  store i8 1, ptr %15, align 1, !tbaa !3
  %78 = load i8, ptr %15, align 1, !tbaa !3, !range !7, !noundef !8
  %79 = trunc i8 %78 to i1
  %80 = zext i1 %79 to i8
  store i8 %80, ptr %15, align 1, !tbaa !3
  br label %81

81:                                               ; preds = %77
  br label %82

82:                                               ; preds = %81
  br label %83

83:                                               ; preds = %82
  store i32 -1, ptr %14, align 4, !tbaa !16
  br label %162

84:                                               ; No predecessors!
  br label %85

85:                                               ; preds = %84
  br label %86

86:                                               ; preds = %85
  br label %87

87:                                               ; preds = %86
  br label %88

88:                                               ; preds = %87, %65
  br label %89

89:                                               ; preds = %88
  %90 = load ptr, ptr %11, align 8, !tbaa !24
  %91 = load i8, ptr %90, align 1, !tbaa !18
  %92 = zext i8 %91 to i32
  %93 = and i32 %92, 255
  %94 = zext i32 %93 to i64
  %95 = getelementptr inbounds nuw %struct.H5HG_t, ptr %12, i32 0, i32 1
  store i64 %94, ptr %95, align 8, !tbaa !50
  %96 = load ptr, ptr %11, align 8, !tbaa !24
  %97 = getelementptr inbounds nuw i8, ptr %96, i32 1
  store ptr %97, ptr %11, align 8, !tbaa !24
  %98 = load ptr, ptr %11, align 8, !tbaa !24
  %99 = load i8, ptr %98, align 1, !tbaa !18
  %100 = zext i8 %99 to i32
  %101 = and i32 %100, 255
  %102 = shl i32 %101, 8
  %103 = zext i32 %102 to i64
  %104 = getelementptr inbounds nuw %struct.H5HG_t, ptr %12, i32 0, i32 1
  %105 = load i64, ptr %104, align 8, !tbaa !50
  %106 = or i64 %105, %103
  store i64 %106, ptr %104, align 8, !tbaa !50
  %107 = load ptr, ptr %11, align 8, !tbaa !24
  %108 = getelementptr inbounds nuw i8, ptr %107, i32 1
  store ptr %108, ptr %11, align 8, !tbaa !24
  %109 = load ptr, ptr %11, align 8, !tbaa !24
  %110 = load i8, ptr %109, align 1, !tbaa !18
  %111 = zext i8 %110 to i32
  %112 = and i32 %111, 255
  %113 = shl i32 %112, 16
  %114 = zext i32 %113 to i64
  %115 = getelementptr inbounds nuw %struct.H5HG_t, ptr %12, i32 0, i32 1
  %116 = load i64, ptr %115, align 8, !tbaa !50
  %117 = or i64 %116, %114
  store i64 %117, ptr %115, align 8, !tbaa !50
  %118 = load ptr, ptr %11, align 8, !tbaa !24
  %119 = getelementptr inbounds nuw i8, ptr %118, i32 1
  store ptr %119, ptr %11, align 8, !tbaa !24
  %120 = load ptr, ptr %11, align 8, !tbaa !24
  %121 = load i8, ptr %120, align 1, !tbaa !18
  %122 = zext i8 %121 to i32
  %123 = and i32 %122, 255
  %124 = shl i32 %123, 24
  %125 = zext i32 %124 to i64
  %126 = getelementptr inbounds nuw %struct.H5HG_t, ptr %12, i32 0, i32 1
  %127 = load i64, ptr %126, align 8, !tbaa !50
  %128 = or i64 %127, %125
  store i64 %128, ptr %126, align 8, !tbaa !50
  %129 = load ptr, ptr %11, align 8, !tbaa !24
  %130 = getelementptr inbounds nuw i8, ptr %129, i32 1
  store ptr %130, ptr %11, align 8, !tbaa !24
  br label %131

131:                                              ; preds = %89
  br label %132

132:                                              ; preds = %131
  %133 = load ptr, ptr %6, align 8, !tbaa !46
  %134 = load ptr, ptr %9, align 8, !tbaa !42
  %135 = load ptr, ptr %134, align 8, !tbaa !24
  %136 = load ptr, ptr %10, align 8, !tbaa !26
  %137 = call ptr @H5HG_read(ptr noundef %133, ptr noundef %12, ptr noundef %135, ptr noundef %136)
  %138 = load ptr, ptr %9, align 8, !tbaa !42
  store ptr %137, ptr %138, align 8, !tbaa !24
  %139 = icmp eq ptr null, %137
  br i1 %139, label %140, label %159

140:                                              ; preds = %132
  br label %141

141:                                              ; preds = %140
  br label %142

142:                                              ; preds = %141
  br label %143

143:                                              ; preds = %142
  %144 = load i64, ptr @H5E_REFERENCE_g, align 8, !tbaa !12
  %145 = load i64, ptr @H5E_READERROR_g, align 8, !tbaa !12
  %146 = call i32 (ptr, ptr, i32, i64, i64, ptr, ...) @H5E_printf_stack(ptr noundef @.str, ptr noundef @__func__.H5R__decode_heap, i32 noundef 1418, i64 noundef %144, i64 noundef %145, ptr noundef @.str.40)
  br label %147

147:                                              ; preds = %143
  br label %148

148:                                              ; preds = %147
  store i8 1, ptr %15, align 1, !tbaa !3
  %149 = load i8, ptr %15, align 1, !tbaa !3, !range !7, !noundef !8
  %150 = trunc i8 %149 to i1
  %151 = zext i1 %150 to i8
  store i8 %151, ptr %15, align 1, !tbaa !3
  br label %152

152:                                              ; preds = %148
  br label %153

153:                                              ; preds = %152
  br label %154

154:                                              ; preds = %153
  store i32 -1, ptr %14, align 4, !tbaa !16
  br label %162

155:                                              ; No predecessors!
  br label %156

156:                                              ; preds = %155
  br label %157

157:                                              ; preds = %156
  br label %158

158:                                              ; preds = %157
  br label %159

159:                                              ; preds = %158, %132
  %160 = load i64, ptr %13, align 8, !tbaa !12
  %161 = load ptr, ptr %8, align 8, !tbaa !26
  store i64 %160, ptr %161, align 8, !tbaa !12
  br label %162

162:                                              ; preds = %159, %154, %83, %54
  br label %163

163:                                              ; preds = %162, %23
  %164 = load i32, ptr %14, align 4, !tbaa !16
  call void @llvm.lifetime.end.p0(i64 1, ptr %15) #9
  call void @llvm.lifetime.end.p0(i64 4, ptr %14) #9
  call void @llvm.lifetime.end.p0(i64 8, ptr %13) #9
  call void @llvm.lifetime.end.p0(i64 16, ptr %12) #9
  call void @llvm.lifetime.end.p0(i64 8, ptr %11) #9
  ret i32 %164
}