; Function Attrs: nounwind uwtable
define range(i32 -1, 1) i32 @H5R__decode_heap(ptr noundef %0, ptr noundef %1, ptr noundef captures(none) %2, ptr noundef captures(none) %3, ptr noundef %4) local_unnamed_addr #1 {
  %6 = alloca ptr, align 8
  %7 = alloca %struct.H5HG_t, align 8
  call void @llvm.lifetime.start.p0(i64 8, ptr nonnull %6) #15
  store ptr %1, ptr %6, align 8, !tbaa !19
  call void @llvm.lifetime.start.p0(i64 16, ptr nonnull %7) #15
  %8 = load i8, ptr @H5R_init_g, align 1, !tbaa !3, !range !7, !noundef !8
  %9 = trunc nuw i8 %8 to i1
  %10 = load i8, ptr @H5_libterm_g, align 1, !range !7
  %11 = trunc nuw i8 %10 to i1
  %12 = xor i1 %11, true
  %13 = select i1 %9, i1 true, i1 %12
  br i1 %13, label %14, label %60, !prof !9

14:                                               ; preds = %5
  %15 = tail call zeroext i8 @H5F_sizeof_addr(ptr noundef %0) #15
  %16 = zext i8 %15 to i64
  %17 = add nuw nsw i64 %16, 4
  %18 = load i64, ptr %2, align 8, !tbaa !17
  %19 = icmp ult i64 %18, %17
  br i1 %19, label %20, label %24

20:                                               ; preds = %14
  %21 = load i64, ptr @H5E_REFERENCE_g, align 8, !tbaa !17
  %22 = load i64, ptr @H5E_CANTDECODE_g, align 8, !tbaa !17
  %23 = tail call i32 (ptr, ptr, i32, i64, i64, ptr, ...) @H5E_printf_stack(ptr noundef nonnull @.str, ptr noundef nonnull @__func__.H5R__decode_heap, i32 noundef 1408, i64 noundef %21, i64 noundef %22, ptr noundef nonnull @.str.31) #15
  br label %60

24:                                               ; preds = %14
  call void @H5F_addr_decode(ptr noundef %0, ptr noundef nonnull %6, ptr noundef nonnull %7) #15
  %25 = load i64, ptr %7, align 8, !tbaa !31
  %26 = add i64 %25, 1
  %or.cond = icmp ult i64 %26, 2
  br i1 %or.cond, label %27, label %31

27:                                               ; preds = %24
  %28 = load i64, ptr @H5E_ARGS_g, align 8, !tbaa !17
  %29 = load i64, ptr @H5E_BADVALUE_g, align 8, !tbaa !17
  %30 = call i32 (ptr, ptr, i32, i64, i64, ptr, ...) @H5E_printf_stack(ptr noundef nonnull @.str, ptr noundef nonnull @__func__.H5R__decode_heap, i32 noundef 1413, i64 noundef %28, i64 noundef %29, ptr noundef nonnull @.str.39) #15
  br label %60

31:                                               ; preds = %24
  %32 = load ptr, ptr %6, align 8, !tbaa !19
  %33 = load i8, ptr %32, align 1, !tbaa !10
  %34 = zext i8 %33 to i64
  %35 = getelementptr inbounds nuw i8, ptr %7, i64 8
  store i64 %34, ptr %35, align 8, !tbaa !33
  %36 = getelementptr inbounds nuw i8, ptr %32, i64 1
  store ptr %36, ptr %6, align 8, !tbaa !19
  %37 = load i8, ptr %36, align 1, !tbaa !10
  %38 = zext i8 %37 to i64
  %39 = shl nuw nsw i64 %38, 8
  %40 = or disjoint i64 %39, %34
  store i64 %40, ptr %35, align 8, !tbaa !33
  %41 = getelementptr inbounds nuw i8, ptr %32, i64 2
  store ptr %41, ptr %6, align 8, !tbaa !19
  %42 = load i8, ptr %41, align 1, !tbaa !10
  %43 = zext i8 %42 to i64
  %44 = shl nuw nsw i64 %43, 16
  %45 = or disjoint i64 %44, %40
  store i64 %45, ptr %35, align 8, !tbaa !33
  %46 = getelementptr inbounds nuw i8, ptr %32, i64 3
  store ptr %46, ptr %6, align 8, !tbaa !19
  %47 = load i8, ptr %46, align 1, !tbaa !10
  %48 = zext i8 %47 to i64
  %49 = shl nuw nsw i64 %48, 24
  %50 = or disjoint i64 %49, %45
  store i64 %50, ptr %35, align 8, !tbaa !33
  %51 = getelementptr inbounds nuw i8, ptr %32, i64 4
  store ptr %51, ptr %6, align 8, !tbaa !19
  %52 = load ptr, ptr %3, align 8, !tbaa !19
  %53 = call ptr @H5HG_read(ptr noundef %0, ptr noundef nonnull %7, ptr noundef %52, ptr noundef %4) #15
  store ptr %53, ptr %3, align 8, !tbaa !19
  %54 = icmp eq ptr %53, null
  br i1 %54, label %55, label %59

55:                                               ; preds = %31
  %56 = load i64, ptr @H5E_REFERENCE_g, align 8, !tbaa !17
  %57 = load i64, ptr @H5E_READERROR_g, align 8, !tbaa !17
  %58 = call i32 (ptr, ptr, i32, i64, i64, ptr, ...) @H5E_printf_stack(ptr noundef nonnull @.str, ptr noundef nonnull @__func__.H5R__decode_heap, i32 noundef 1418, i64 noundef %56, i64 noundef %57, ptr noundef nonnull @.str.40) #15
  br label %60

59:                                               ; preds = %31
  store i64 %17, ptr %2, align 8, !tbaa !17
  br label %60

60:                                               ; preds = %20, %27, %55, %59, %5
  %.0 = phi i32 [ -1, %20 ], [ -1, %27 ], [ -1, %55 ], [ 0, %59 ], [ 0, %5 ]
  call void @llvm.lifetime.end.p0(i64 16, ptr nonnull %7) #15
  call void @llvm.lifetime.end.p0(i64 8, ptr nonnull %6) #15
  ret i32 %.0
}